; Function Attrs: mustprogress nofree norecurse nosync nounwind willreturn memory(read, argmem: readwrite, inaccessiblemem: none) uwtable
define void @cli_bytecode_context_setctx(ptr nocapture noundef writeonly %0, ptr noundef %1) local_unnamed_addr #11 {
  %3 = getelementptr inbounds i8, ptr %0, i64 1088
  store ptr %1, ptr %3, align 8
  %4 = getelementptr inbounds i8, ptr %1, i64 48
  %5 = load ptr, ptr %4, align 8
  %6 = getelementptr inbounds i8, ptr %5, i64 1028
  %7 = load i32, ptr %6, align 4
  %8 = getelementptr inbounds i8, ptr %0, i64 24
  store i32 %7, ptr %8, align 8
  ret void
}